; ModuleID = '52/3452.c'
source_filename = "52/3452.c"
target datalayout = "e-m:e-p270:32:32-p271:32:32-p272:64:64-i64:64-f80:128-n8:16:32:64-S128"
target triple = "x86_64-pc-linux-gnu"

@.str = private unnamed_addr constant [6 x i8] c"%d %d\00", align 1
@.str.1 = private unnamed_addr constant [3 x i8] c"%d\00", align 1
@.str.2 = private unnamed_addr constant [4 x i8] c" %d\00", align 1

; Function Attrs: noinline nounwind uwtable
define dso_local i32 @main() #0 {
  %1 = alloca i32, align 4
  %2 = alloca [100 x i32], align 16
  %3 = alloca i32, align 4
  %4 = alloca i32, align 4
  %5 = alloca i32, align 4
  %6 = alloca i32*, align 8
  store i32 0, i32* %1, align 4
  %7 = getelementptr inbounds [100 x i32], [100 x i32]* %2, i64 0, i64 0
  store i32* %7, i32** %6, align 8
  %8 = call i32 (i8*, ...) @__isoc99_scanf(i8* getelementptr inbounds ([6 x i8], [6 x i8]* @.str, i64 0, i64 0), i32* %3, i32* %4)
  store i32 0, i32* %5, align 4
  br label %9

9:                                                ; preds = %19, %0
  %10 = load i32, i32* %5, align 4
  %11 = load i32, i32* %3, align 4
  %12 = sub nsw i32 %11, 1
  %13 = icmp sle i32 %10, %12
  br i1 %13, label %14, label %22

14:                                               ; preds = %9
  %15 = load i32, i32* %5, align 4
  %16 = sext i32 %15 to i64
  %17 = getelementptr inbounds [100 x i32], [100 x i32]* %2, i64 0, i64 %16
  %18 = call i32 (i8*, ...) @__isoc99_scanf(i8* getelementptr inbounds ([3 x i8], [3 x i8]* @.str.1, i64 0, i64 0), i32* %17)
  br label %19

19:                                               ; preds = %14
  %20 = load i32, i32* %5, align 4
  %21 = add nsw i32 %20, 1
  store i32 %21, i32* %5, align 4
  br label %9

22:                                               ; preds = %9
  %23 = load i32, i32* %3, align 4
  %24 = load i32, i32* %4, align 4
  %25 = sub nsw i32 %23, %24
  %26 = sext i32 %25 to i64
  %27 = getelementptr inbounds [100 x i32], [100 x i32]* %2, i64 0, i64 %26
  %28 = load i32, i32* %27, align 4
  %29 = call i32 (i8*, ...) @printf(i8* getelementptr inbounds ([3 x i8], [3 x i8]* @.str.1, i64 0, i64 0), i32 %28)
  %30 = load i32, i32* %3, align 4
  %31 = load i32, i32* %4, align 4
  %32 = sub nsw i32 %30, %31
  %33 = sext i32 %32 to i64
  %34 = getelementptr inbounds [100 x i32], [100 x i32]* %2, i64 0, i64 %33
  %35 = getelementptr inbounds i32, i32* %34, i64 1
  store i32* %35, i32** %6, align 8
  br label %36

36:                                               ; preds = %47, %22
  %37 = load i32*, i32** %6, align 8
  %38 = load i32, i32* %3, align 4
  %39 = sub nsw i32 %38, 1
  %40 = sext i32 %39 to i64
  %41 = getelementptr inbounds [100 x i32], [100 x i32]* %2, i64 0, i64 %40
  %42 = icmp ule i32* %37, %41
  br i1 %42, label %43, label %50

43:                                               ; preds = %36
  %44 = load i32*, i32** %6, align 8
  %45 = load i32, i32* %44, align 4
  %46 = call i32 (i8*, ...) @printf(i8* getelementptr inbounds ([4 x i8], [4 x i8]* @.str.2, i64 0, i64 0), i32 %45)
  br label %47

47:                                               ; preds = %43
  %48 = load i32*, i32** %6, align 8
  %49 = getelementptr inbounds i32, i32* %48, i32 1
  store i32* %49, i32** %6, align 8
  br label %36

50:                                               ; preds = %36
  %51 = getelementptr inbounds [100 x i32], [100 x i32]* %2, i64 0, i64 0
  store i32* %51, i32** %6, align 8
  br label %52

52:                                               ; preds = %68, %50
  %53 = load i32*, i32** %6, align 8
  %54 = getelementptr inbounds [100 x i32], [100 x i32]* %2, i64 0, i64 0
  %55 = load i32, i32* %3, align 4
  %56 = sext i32 %55 to i64
  %57 = getelementptr inbounds i32, i32* %54, i64 %56
  %58 = load i32, i32* %4, align 4
  %59 = sext i32 %58 to i64
  %60 = sub i64 0, %59
  %61 = getelementptr inbounds i32, i32* %57, i64 %60
  %62 = getelementptr inbounds i32, i32* %61, i64 -1
  %63 = icmp ule i32* %53, %62
  br i1 %63, label %64, label %71

64:                                               ; preds = %52
  %65 = load i32*, i32** %6, align 8
  %66 = load i32, i32* %65, align 4
  %67 = call i32 (i8*, ...) @printf(i8* getelementptr inbounds ([4 x i8], [4 x i8]* @.str.2, i64 0, i64 0), i32 %66)
  br label %68

68:                                               ; preds = %64
  %69 = load i32*, i32** %6, align 8
  %70 = getelementptr inbounds i32, i32* %69, i32 1
  store i32* %70, i32** %6, align 8
  br label %52

71:                                               ; preds = %52
  ret i32 0
}

declare dso_local i32 @__isoc99_scanf(i8*, ...) #1

declare dso_local i32 @printf(i8*, ...) #1


!llvm.module.flags = !{!0}
!llvm.ident = !{!1}

!0 = !{i32 1, !"wchar_size", i32 4}
!1 = !{!"clang version 10.0.0-4ubuntu1 "}
